target datalayout = "e-m:e-p270:32:32-p271:32:32-p272:64:64-i64:64-i128:128-f80:128-n8:16:32:64-S128"
target triple = "x86_64-pc-linux-gnu"

@.str.4 = private unnamed_addr constant [15 x i8] c"New word level\00", align 1
@.str.5 = private unnamed_addr constant [7 x i8] c"@_read\00", align 1
@.str.6 = private unnamed_addr constant [8 x i8] c"@_write\00", align 1
@.str.7 = private unnamed_addr constant [5 x i8] c"@_ps\00", align 1
@.str.8 = private unnamed_addr constant [6 x i8] c"@_put\00", align 1
@.str.9 = private unnamed_addr constant [6 x i8] c"@_get\00", align 1
@.str.10 = private unnamed_addr constant [6 x i8] c"@_clp\00", align 1
@.str.11 = private unnamed_addr constant [6 x i8] c"@_cec\00", align 1
@.str.12 = private unnamed_addr constant [7 x i8] c"@_test\00", align 1

; Function Attrs: nounwind uwtable
define void @Bac_Init(ptr noundef %0) #0 {
  %2 = alloca ptr, align 8
  store ptr %0, ptr %2, align 8, !tbaa !10
  %3 = load ptr, ptr %2, align 8, !tbaa !10
  call void @Cmd_CommandAdd(ptr noundef %3, ptr noundef @.str.4, ptr noundef @.str.5, ptr noundef @Bac_CommandRead, i32 noundef 0)
  %4 = load ptr, ptr %2, align 8, !tbaa !10
  call void @Cmd_CommandAdd(ptr noundef %4, ptr noundef @.str.4, ptr noundef @.str.6, ptr noundef @Bac_CommandWrite, i32 noundef 0)
  %5 = load ptr, ptr %2, align 8, !tbaa !10
  call void @Cmd_CommandAdd(ptr noundef %5, ptr noundef @.str.4, ptr noundef @.str.7, ptr noundef @Bac_CommandPs, i32 noundef 0)
  %6 = load ptr, ptr %2, align 8, !tbaa !10
  call void @Cmd_CommandAdd(ptr noundef %6, ptr noundef @.str.4, ptr noundef @.str.8, ptr noundef @Bac_CommandPut, i32 noundef 0)
  %7 = load ptr, ptr %2, align 8, !tbaa !10
  call void @Cmd_CommandAdd(ptr noundef %7, ptr noundef @.str.4, ptr noundef @.str.9, ptr noundef @Bac_CommandGet, i32 noundef 0)
  %8 = load ptr, ptr %2, align 8, !tbaa !10
  call void @Cmd_CommandAdd(ptr noundef %8, ptr noundef @.str.4, ptr noundef @.str.10, ptr noundef @Bac_CommandClp, i32 noundef 0)
  %9 = load ptr, ptr %2, align 8, !tbaa !10
  call void @Cmd_CommandAdd(ptr noundef %9, ptr noundef @.str.4, ptr noundef @.str.11, ptr noundef @Bac_CommandCec, i32 noundef 0)
  %10 = load ptr, ptr %2, align 8, !tbaa !10
  call void @Cmd_CommandAdd(ptr noundef %10, ptr noundef @.str.4, ptr noundef @.str.12, ptr noundef @Bac_CommandTest, i32 noundef 0)
  ret void
}