; Function Attrs: nounwind uwtable
define void @Bac_Init(ptr noundef %0) local_unnamed_addr #0 {
  tail call void @Cmd_CommandAdd(ptr noundef %0, ptr noundef nonnull @.str.4, ptr noundef nonnull @.str.5, ptr noundef nonnull @Bac_CommandRead, i32 noundef 0) #14
  tail call void @Cmd_CommandAdd(ptr noundef %0, ptr noundef nonnull @.str.4, ptr noundef nonnull @.str.6, ptr noundef nonnull @Bac_CommandWrite, i32 noundef 0) #14
  tail call void @Cmd_CommandAdd(ptr noundef %0, ptr noundef nonnull @.str.4, ptr noundef nonnull @.str.7, ptr noundef nonnull @Bac_CommandPs, i32 noundef 0) #14
  tail call void @Cmd_CommandAdd(ptr noundef %0, ptr noundef nonnull @.str.4, ptr noundef nonnull @.str.8, ptr noundef nonnull @Bac_CommandPut, i32 noundef 0) #14
  tail call void @Cmd_CommandAdd(ptr noundef %0, ptr noundef nonnull @.str.4, ptr noundef nonnull @.str.9, ptr noundef nonnull @Bac_CommandGet, i32 noundef 0) #14
  tail call void @Cmd_CommandAdd(ptr noundef %0, ptr noundef nonnull @.str.4, ptr noundef nonnull @.str.10, ptr noundef nonnull @Bac_CommandClp, i32 noundef 0) #14
  tail call void @Cmd_CommandAdd(ptr noundef %0, ptr noundef nonnull @.str.4, ptr noundef nonnull @.str.11, ptr noundef nonnull @Bac_CommandCec, i32 noundef 0) #14
  tail call void @Cmd_CommandAdd(ptr noundef %0, ptr noundef nonnull @.str.4, ptr noundef nonnull @.str.12, ptr noundef nonnull @Bac_CommandTest, i32 noundef 0) #14
  ret void
}